target datalayout = "e-m:e-p270:32:32-p271:32:32-p272:64:64-i64:64-i128:128-f80:128-n8:16:32:64-S128"
target triple = "x86_64-pc-linux-gnu"

%struct.AVFormatContext = type { ptr, ptr, ptr, ptr, ptr, i32, i32, ptr, i32, ptr, i32, ptr, ptr, i64, i64, i64, i32, i32, i32, i64, i64, ptr, i32, i32, ptr, i32, i32, i32, i32, ptr, i64, i32, i32, %struct.AVIOInterruptCB, i32, i32, i32, i32, i64, i32, i32, i32, i32, i32, i32, i32, i32, i32, i32, i32, i32, i64, i32, i32, i32, i32, i32, ptr, ptr, ptr, ptr, i32, ptr, ptr, ptr, ptr, i32, ptr, ptr, i64, ptr, ptr, ptr, i64 }
%struct.AVIOInterruptCB = type { ptr, ptr }
%struct.AVDictionaryEntry = type { ptr, ptr }

@.str.464 = private unnamed_addr constant [4 x i8] c"eng\00", align 1
@.str.475 = private unnamed_addr constant [5 x i8] c"albm\00", align 1
@.str.479 = private unnamed_addr constant [5 x i8] c"yrrc\00", align 1
@.str.501 = private unnamed_addr constant [6 x i8] c"track\00", align 1

; Function Attrs: nounwind uwtable
define internal i64 @update_size(ptr noundef %0, i64 noundef %1) #0 {
  %3 = alloca ptr, align 8
  %4 = alloca i64, align 8
  %5 = alloca i64, align 8
  store ptr %0, ptr %3, align 8, !tbaa !31
  store i64 %1, ptr %4, align 8, !tbaa !134
  call void @llvm.lifetime.start.p0(i64 8, ptr %5) #14
  %6 = load ptr, ptr %3, align 8, !tbaa !31
  %7 = call i64 @avio_tell(ptr noundef %6)
  store i64 %7, ptr %5, align 8, !tbaa !134
  %8 = load ptr, ptr %3, align 8, !tbaa !31
  %9 = load i64, ptr %4, align 8, !tbaa !134
  %10 = call i64 @avio_seek(ptr noundef %8, i64 noundef %9, i32 noundef 0)
  %11 = load ptr, ptr %3, align 8, !tbaa !31
  %12 = load i64, ptr %5, align 8, !tbaa !134
  %13 = load i64, ptr %4, align 8, !tbaa !134
  %14 = sub nsw i64 %12, %13
  %15 = trunc i64 %14 to i32
  call void @avio_wb32(ptr noundef %11, i32 noundef %15)
  %16 = load ptr, ptr %3, align 8, !tbaa !31
  %17 = load i64, ptr %5, align 8, !tbaa !134
  %18 = call i64 @avio_seek(ptr noundef %16, i64 noundef %17, i32 noundef 0)
  %19 = load i64, ptr %5, align 8, !tbaa !134
  %20 = load i64, ptr %4, align 8, !tbaa !134
  %21 = sub nsw i64 %19, %20
  call void @llvm.lifetime.end.p0(i64 8, ptr %5) #14
  ret i64 %21
}

; Function Attrs: nounwind uwtable
define internal zeroext i16 @language_code(ptr noundef %0) #0 {
  %2 = alloca ptr, align 8
  store ptr %0, ptr %2, align 8, !tbaa !38
  %3 = load ptr, ptr %2, align 8, !tbaa !38
  %4 = getelementptr inbounds i8, ptr %3, i64 0
  %5 = load i8, ptr %4, align 1, !tbaa !85
  %6 = sext i8 %5 to i32
  %7 = sub nsw i32 %6, 96
  %8 = and i32 %7, 31
  %9 = shl i32 %8, 10
  %10 = load ptr, ptr %2, align 8, !tbaa !38
  %11 = getelementptr inbounds i8, ptr %10, i64 1
  %12 = load i8, ptr %11, align 1, !tbaa !85
  %13 = sext i8 %12 to i32
  %14 = sub nsw i32 %13, 96
  %15 = and i32 %14, 31
  %16 = shl i32 %15, 5
  %17 = add nsw i32 %9, %16
  %18 = load ptr, ptr %2, align 8, !tbaa !38
  %19 = getelementptr inbounds i8, ptr %18, i64 2
  %20 = load i8, ptr %19, align 1, !tbaa !85
  %21 = sext i8 %20 to i32
  %22 = sub nsw i32 %21, 96
  %23 = and i32 %22, 31
  %24 = add nsw i32 %17, %23
  %25 = trunc i32 %24 to i16
  ret i16 %25
}

; Function Attrs: inlinehint nounwind willreturn memory(read) uwtable
define available_externally i32 @atoi(ptr noundef nonnull %0) #13 {
  %2 = alloca ptr, align 8
  store ptr %0, ptr %2, align 8, !tbaa !38
  %3 = load ptr, ptr %2, align 8, !tbaa !38
  %4 = call i64 @strtol(ptr noundef %3, ptr noundef null, i32 noundef 10) #14
  %5 = trunc i64 %4 to i32
  ret i32 %5
}

; Function Attrs: alwaysinline nounwind uwtable
define internal void @ffio_wfourcc(ptr noundef %0, ptr noundef %1) #6 {
  %3 = alloca ptr, align 8
  %4 = alloca ptr, align 8
  store ptr %0, ptr %3, align 8, !tbaa !31
  store ptr %1, ptr %4, align 8, !tbaa !38
  %5 = load ptr, ptr %3, align 8, !tbaa !31
  %6 = load ptr, ptr %4, align 8, !tbaa !38
  %7 = getelementptr inbounds i8, ptr %6, i64 0
  %8 = load i8, ptr %7, align 1, !tbaa !85
  %9 = zext i8 %8 to i32
  %10 = load ptr, ptr %4, align 8, !tbaa !38
  %11 = getelementptr inbounds i8, ptr %10, i64 1
  %12 = load i8, ptr %11, align 1, !tbaa !85
  %13 = zext i8 %12 to i32
  %14 = shl i32 %13, 8
  %15 = or i32 %9, %14
  %16 = load ptr, ptr %4, align 8, !tbaa !38
  %17 = getelementptr inbounds i8, ptr %16, i64 2
  %18 = load i8, ptr %17, align 1, !tbaa !85
  %19 = zext i8 %18 to i32
  %20 = shl i32 %19, 16
  %21 = or i32 %15, %20
  %22 = load ptr, ptr %4, align 8, !tbaa !38
  %23 = getelementptr inbounds i8, ptr %22, i64 3
  %24 = load i8, ptr %23, align 1, !tbaa !85
  %25 = zext i8 %24 to i32
  %26 = shl i32 %25, 24
  %27 = or i32 %21, %26
  call void @avio_wl32(ptr noundef %5, i32 noundef %27)
  ret void
}

; Function Attrs: nounwind uwtable
define internal i32 @utf8len(ptr noundef %0) #0 {
  %2 = alloca i32, align 4
  %3 = alloca ptr, align 8
  %4 = alloca i32, align 4
  %5 = alloca i32, align 4
  %6 = alloca i32, align 4
  %7 = alloca i32, align 4
  %8 = alloca i32, align 4
  store ptr %0, ptr %3, align 8, !tbaa !38
  call void @llvm.lifetime.start.p0(i64 4, ptr %4) #14
  store i32 0, ptr %4, align 4, !tbaa !32
  call void @llvm.lifetime.start.p0(i64 4, ptr %5) #14
  br label %9

9:                                                ; preds = %62, %1
  %10 = load ptr, ptr %3, align 8, !tbaa !38
  %11 = load i8, ptr %10, align 1, !tbaa !85
  %12 = icmp ne i8 %11, 0
  br i1 %12, label %13, label %65

13:                                               ; preds = %9
  %14 = load ptr, ptr %3, align 8, !tbaa !38
  %15 = getelementptr inbounds nuw i8, ptr %14, i32 1
  store ptr %15, ptr %3, align 8, !tbaa !38
  %16 = load i8, ptr %14, align 1, !tbaa !85
  %17 = zext i8 %16 to i32
  store i32 %17, ptr %5, align 4, !tbaa !32
  call void @llvm.lifetime.start.p0(i64 4, ptr %6) #14
  %18 = load i32, ptr %5, align 4, !tbaa !32
  %19 = and i32 %18, 128
  %20 = ashr i32 %19, 1
  store i32 %20, ptr %6, align 4, !tbaa !32
  %21 = load i32, ptr %5, align 4, !tbaa !32
  %22 = and i32 %21, 192
  %23 = icmp eq i32 %22, 128
  br i1 %23, label %27, label %24

24:                                               ; preds = %13
  %25 = load i32, ptr %5, align 4, !tbaa !32
  %26 = icmp sge i32 %25, 254
  br i1 %26, label %27, label %28

27:                                               ; preds = %24, %13
  store i32 -1, ptr %2, align 4
  store i32 1, ptr %7, align 4
  br label %60

28:                                               ; preds = %24
  br label %29

29:                                               ; preds = %53, %28
  %30 = load i32, ptr %5, align 4, !tbaa !32
  %31 = load i32, ptr %6, align 4, !tbaa !32
  %32 = and i32 %30, %31
  %33 = icmp ne i32 %32, 0
  br i1 %33, label %34, label %54

34:                                               ; preds = %29
  call void @llvm.lifetime.start.p0(i64 4, ptr %8) #14
  %35 = load ptr, ptr %3, align 8, !tbaa !38
  %36 = getelementptr inbounds nuw i8, ptr %35, i32 1
  store ptr %36, ptr %3, align 8, !tbaa !38
  %37 = load i8, ptr %35, align 1, !tbaa !85
  %38 = zext i8 %37 to i32
  %39 = sub nsw i32 %38, 128
  store i32 %39, ptr %8, align 4, !tbaa !32
  %40 = load i32, ptr %8, align 4, !tbaa !32
  %41 = lshr i32 %40, 6
  %42 = icmp ne i32 %41, 0
  br i1 %42, label %43, label %44

43:                                               ; preds = %34
  store i32 -1, ptr %2, align 4
  store i32 1, ptr %7, align 4
  br label %51

44:                                               ; preds = %34
  %45 = load i32, ptr %5, align 4, !tbaa !32
  %46 = shl i32 %45, 6
  %47 = load i32, ptr %8, align 4, !tbaa !32
  %48 = add i32 %46, %47
  store i32 %48, ptr %5, align 4, !tbaa !32
  %49 = load i32, ptr %6, align 4, !tbaa !32
  %50 = shl i32 %49, 5
  store i32 %50, ptr %6, align 4, !tbaa !32
  store i32 0, ptr %7, align 4
  br label %51

51:                                               ; preds = %44, %43
  call void @llvm.lifetime.end.p0(i64 4, ptr %8) #14
  %52 = load i32, ptr %7, align 4
  switch i32 %52, label %60 [
    i32 0, label %53
  ]

53:                                               ; preds = %51
  br label %29, !llvm.loop !402

54:                                               ; preds = %29
  %55 = load i32, ptr %6, align 4, !tbaa !32
  %56 = shl i32 %55, 1
  %57 = sub i32 %56, 1
  %58 = load i32, ptr %5, align 4, !tbaa !32
  %59 = and i32 %58, %57
  store i32 %59, ptr %5, align 4, !tbaa !32
  store i32 0, ptr %7, align 4
  br label %60

60:                                               ; preds = %54, %51, %27
  call void @llvm.lifetime.end.p0(i64 4, ptr %6) #14
  %61 = load i32, ptr %7, align 4
  switch i32 %61, label %67 [
    i32 0, label %62
  ]

62:                                               ; preds = %60
  %63 = load i32, ptr %4, align 4, !tbaa !32
  %64 = add nsw i32 %63, 1
  store i32 %64, ptr %4, align 4, !tbaa !32
  br label %9, !llvm.loop !403

65:                                               ; preds = %9
  %66 = load i32, ptr %4, align 4, !tbaa !32
  store i32 %66, ptr %2, align 4
  store i32 1, ptr %7, align 4
  br label %67

67:                                               ; preds = %65, %60
  call void @llvm.lifetime.end.p0(i64 4, ptr %5) #14
  call void @llvm.lifetime.end.p0(i64 4, ptr %4) #14
  %68 = load i32, ptr %2, align 4
  ret i32 %68
}

; Function Attrs: alwaysinline nounwind uwtable
define internal i64 @avio_tell(ptr noundef %0) #6 {
  %2 = alloca ptr, align 8
  store ptr %0, ptr %2, align 8, !tbaa !31
  %3 = load ptr, ptr %2, align 8, !tbaa !31
  %4 = call i64 @avio_seek(ptr noundef %3, i64 noundef 0, i32 noundef 1)
  ret i64 %4
}

; Function Attrs: nounwind uwtable
define internal i32 @mov_write_3gp_udta_tag(ptr noundef %0, ptr noundef %1, ptr noundef %2, ptr noundef %3) #0 {
  %5 = alloca i32, align 4
  %6 = alloca ptr, align 8
  %7 = alloca ptr, align 8
  %8 = alloca ptr, align 8
  %9 = alloca ptr, align 8
  %10 = alloca i64, align 8
  %11 = alloca ptr, align 8
  %12 = alloca i32, align 4
  store ptr %0, ptr %6, align 8, !tbaa !31
  store ptr %1, ptr %7, align 8, !tbaa !4
  store ptr %2, ptr %8, align 8, !tbaa !38
  store ptr %3, ptr %9, align 8, !tbaa !38
  call void @llvm.lifetime.start.p0(i64 8, ptr %10) #14
  %13 = load ptr, ptr %6, align 8, !tbaa !31
  %14 = call i64 @avio_tell(ptr noundef %13)
  store i64 %14, ptr %10, align 8, !tbaa !134
  call void @llvm.lifetime.start.p0(i64 8, ptr %11) #14
  %15 = load ptr, ptr %7, align 8, !tbaa !4
  %16 = getelementptr inbounds nuw %struct.AVFormatContext, ptr %15, i32 0, i32 29
  %17 = load ptr, ptr %16, align 8, !tbaa !209
  %18 = load ptr, ptr %9, align 8, !tbaa !38
  %19 = call ptr @av_dict_get(ptr noundef %17, ptr noundef %18, ptr noundef null, i32 noundef 0)
  store ptr %19, ptr %11, align 8, !tbaa !210
  %20 = load ptr, ptr %11, align 8, !tbaa !210
  %21 = icmp ne ptr %20, null
  br i1 %21, label %22, label %28

22:                                               ; preds = %4
  %23 = load ptr, ptr %11, align 8, !tbaa !210
  %24 = getelementptr inbounds nuw %struct.AVDictionaryEntry, ptr %23, i32 0, i32 1
  %25 = load ptr, ptr %24, align 8, !tbaa !213
  %26 = call i32 @utf8len(ptr noundef %25)
  %27 = icmp ne i32 %26, 0
  br i1 %27, label %29, label %28

28:                                               ; preds = %22, %4
  store i32 0, ptr %5, align 4
  store i32 1, ptr %12, align 4
  br label %78

29:                                               ; preds = %22
  %30 = load ptr, ptr %6, align 8, !tbaa !31
  call void @avio_wb32(ptr noundef %30, i32 noundef 0)
  %31 = load ptr, ptr %6, align 8, !tbaa !31
  %32 = load ptr, ptr %8, align 8, !tbaa !38
  call void @ffio_wfourcc(ptr noundef %31, ptr noundef %32)
  %33 = load ptr, ptr %6, align 8, !tbaa !31
  call void @avio_wb32(ptr noundef %33, i32 noundef 0)
  %34 = load ptr, ptr %8, align 8, !tbaa !38
  %35 = call i32 @strcmp(ptr noundef %34, ptr noundef @.str.479) #17
  %36 = icmp ne i32 %35, 0
  br i1 %36, label %43, label %37

37:                                               ; preds = %29
  %38 = load ptr, ptr %6, align 8, !tbaa !31
  %39 = load ptr, ptr %11, align 8, !tbaa !210
  %40 = getelementptr inbounds nuw %struct.AVDictionaryEntry, ptr %39, i32 0, i32 1
  %41 = load ptr, ptr %40, align 8, !tbaa !213
  %42 = call i32 @atoi(ptr noundef %41) #17
  call void @avio_wb16(ptr noundef %38, i32 noundef %42)
  br label %73

43:                                               ; preds = %29
  %44 = load ptr, ptr %6, align 8, !tbaa !31
  %45 = call zeroext i16 @language_code(ptr noundef @.str.464)
  %46 = zext i16 %45 to i32
  call void @avio_wb16(ptr noundef %44, i32 noundef %46)
  %47 = load ptr, ptr %6, align 8, !tbaa !31
  %48 = load ptr, ptr %11, align 8, !tbaa !210
  %49 = getelementptr inbounds nuw %struct.AVDictionaryEntry, ptr %48, i32 0, i32 1
  %50 = load ptr, ptr %49, align 8, !tbaa !213
  %51 = load ptr, ptr %11, align 8, !tbaa !210
  %52 = getelementptr inbounds nuw %struct.AVDictionaryEntry, ptr %51, i32 0, i32 1
  %53 = load ptr, ptr %52, align 8, !tbaa !213
  %54 = call i64 @strlen(ptr noundef %53) #17
  %55 = add i64 %54, 1
  %56 = trunc i64 %55 to i32
  call void @avio_write(ptr noundef %47, ptr noundef %50, i32 noundef %56)
  %57 = load ptr, ptr %8, align 8, !tbaa !38
  %58 = call i32 @strcmp(ptr noundef %57, ptr noundef @.str.475) #17
  %59 = icmp ne i32 %58, 0
  br i1 %59, label %72, label %60

60:                                               ; preds = %43
  %61 = load ptr, ptr %7, align 8, !tbaa !4
  %62 = getelementptr inbounds nuw %struct.AVFormatContext, ptr %61, i32 0, i32 29
  %63 = load ptr, ptr %62, align 8, !tbaa !209
  %64 = call ptr @av_dict_get(ptr noundef %63, ptr noundef @.str.501, ptr noundef null, i32 noundef 0)
  store ptr %64, ptr %11, align 8, !tbaa !210
  %65 = icmp ne ptr %64, null
  br i1 %65, label %66, label %72

66:                                               ; preds = %60
  %67 = load ptr, ptr %6, align 8, !tbaa !31
  %68 = load ptr, ptr %11, align 8, !tbaa !210
  %69 = getelementptr inbounds nuw %struct.AVDictionaryEntry, ptr %68, i32 0, i32 1
  %70 = load ptr, ptr %69, align 8, !tbaa !213
  %71 = call i32 @atoi(ptr noundef %70) #17
  call void @avio_w8(ptr noundef %67, i32 noundef %71)
  br label %72

72:                                               ; preds = %66, %60, %43
  br label %73

73:                                               ; preds = %72, %37
  %74 = load ptr, ptr %6, align 8, !tbaa !31
  %75 = load i64, ptr %10, align 8, !tbaa !134
  %76 = call i64 @update_size(ptr noundef %74, i64 noundef %75)
  %77 = trunc i64 %76 to i32
  store i32 %77, ptr %5, align 4
  store i32 1, ptr %12, align 4
  br label %78

78:                                               ; preds = %73, %28
  call void @llvm.lifetime.end.p0(i64 8, ptr %11) #14
  call void @llvm.lifetime.end.p0(i64 8, ptr %10) #14
  %79 = load i32, ptr %5, align 4
  ret i32 %79
}