; Function Attrs: nounwind uwtable
define internal fastcc void @mov_write_3gp_udta_tag(ptr noundef %0, ptr noundef readonly captures(none) %1, ptr noundef readonly captures(none) %2, ptr noundef %3) unnamed_addr #0 {
  %5 = tail call i64 @avio_seek(ptr noundef %0, i64 noundef 0, i32 noundef 1) #16
  %6 = getelementptr inbounds nuw i8, ptr %1, i64 192
  %7 = load ptr, ptr %6, align 8, !tbaa !201
  %8 = tail call ptr @av_dict_get(ptr noundef %7, ptr noundef %3, ptr noundef null, i32 noundef 0) #16
  %.not = icmp eq ptr %8, null
  br i1 %.not, label %utf8len.exit, label %9

9:                                                ; preds = %4
  %10 = getelementptr inbounds nuw i8, ptr %8, i64 8
  %11 = load ptr, ptr %10, align 8, !tbaa !203
  %12 = load i8, ptr %11, align 1, !tbaa !88
  %.not38.i = icmp eq i8 %12, 0
  br i1 %.not38.i, label %utf8len.exit, label %.lr.ph.i

.lr.ph.i:                                         ; preds = %9, %28
  %13 = phi i8 [ %21, %28 ], [ %12, %9 ]
  %.02739.i = phi ptr [ %.229.i, %28 ], [ %11, %9 ]
  %14 = zext i8 %13 to i32
  %15 = and i32 %14, 192
  %16 = icmp eq i32 %15, 128
  %17 = icmp ugt i8 %13, -3
  %or.cond.i = or i1 %17, %16
  br i1 %or.cond.i, label %.loopexit, label %.preheader.preheader.i

.preheader.preheader.i:                           ; preds = %.lr.ph.i
  %18 = lshr i32 %14, 1
  %19 = and i32 %18, 64
  br label %.preheader.i

.preheader.i:                                     ; preds = %22, %.preheader.preheader.i
  %.027.pn.i = phi ptr [ %.229.i, %22 ], [ %.02739.i, %.preheader.preheader.i ]
  %.024.i = phi i32 [ %26, %22 ], [ %14, %.preheader.preheader.i ]
  %.022.i = phi i32 [ %27, %22 ], [ %19, %.preheader.preheader.i ]
  %.229.i = getelementptr inbounds nuw i8, ptr %.027.pn.i, i64 1
  %20 = and i32 %.022.i, %.024.i
  %.not32.i = icmp eq i32 %20, 0
  %21 = load i8, ptr %.229.i, align 1, !tbaa !88
  br i1 %.not32.i, label %28, label %22

22:                                               ; preds = %.preheader.i
  %23 = zext i8 %21 to i32
  %24 = add nsw i32 %23, -128
  %.not33.i = icmp ult i32 %24, 64
  %25 = shl i32 %.024.i, 6
  %26 = add nuw nsw i32 %24, %25
  %27 = shl i32 %.022.i, 5
  br i1 %.not33.i, label %.preheader.i, label %.loopexit, !llvm.loop !361

28:                                               ; preds = %.preheader.i
  %.not.i = icmp eq i8 %21, 0
  br i1 %.not.i, label %.loopexit, label %.lr.ph.i, !llvm.loop !362

.loopexit:                                        ; preds = %28, %.lr.ph.i, %22
  tail call void @avio_wb32(ptr noundef %0, i32 noundef 0) #16
  %29 = load i32, ptr %2, align 1
  tail call void @avio_wl32(ptr noundef %0, i32 noundef %29) #16
  tail call void @avio_wb32(ptr noundef %0, i32 noundef 0) #16
  %30 = tail call i32 @strcmp(ptr noundef nonnull dereferenceable(1) %2, ptr noundef nonnull dereferenceable(5) @.str.479) #18
  %.not25 = icmp eq i32 %30, 0
  br i1 %.not25, label %31, label %35

31:                                               ; preds = %.loopexit
  %32 = load ptr, ptr %10, align 8, !tbaa !203
  %33 = tail call i64 @strtol(ptr noundef nonnull captures(none) %32, ptr noundef null, i32 noundef 10) #16
  %34 = trunc i64 %33 to i32
  tail call void @avio_wb16(ptr noundef %0, i32 noundef %34) #16
  br label %49

35:                                               ; preds = %.loopexit
  tail call void @avio_wb16(ptr noundef %0, i32 noundef 5575) #16
  %36 = load ptr, ptr %10, align 8, !tbaa !203
  %37 = tail call i64 @strlen(ptr noundef nonnull dereferenceable(1) %36) #18
  %38 = trunc i64 %37 to i32
  %39 = add i32 %38, 1
  tail call void @avio_write(ptr noundef %0, ptr noundef nonnull %36, i32 noundef %39) #16
  %40 = tail call i32 @strcmp(ptr noundef nonnull dereferenceable(1) %2, ptr noundef nonnull dereferenceable(5) @.str.475) #18
  %.not26 = icmp eq i32 %40, 0
  br i1 %.not26, label %41, label %49

41:                                               ; preds = %35
  %42 = load ptr, ptr %6, align 8, !tbaa !201
  %43 = tail call ptr @av_dict_get(ptr noundef %42, ptr noundef nonnull @.str.501, ptr noundef null, i32 noundef 0) #16
  %.not27 = icmp eq ptr %43, null
  br i1 %.not27, label %49, label %44

44:                                               ; preds = %41
  %45 = getelementptr inbounds nuw i8, ptr %43, i64 8
  %46 = load ptr, ptr %45, align 8, !tbaa !203
  %47 = tail call i64 @strtol(ptr noundef nonnull captures(none) %46, ptr noundef null, i32 noundef 10) #16
  %48 = trunc i64 %47 to i32
  tail call void @avio_w8(ptr noundef %0, i32 noundef %48) #16
  br label %49

49:                                               ; preds = %35, %41, %44, %31
  %50 = tail call i64 @avio_seek(ptr noundef %0, i64 noundef 0, i32 noundef 1) #16
  %51 = tail call i64 @avio_seek(ptr noundef %0, i64 noundef %5, i32 noundef 0) #16
  %52 = sub nsw i64 %50, %5
  %53 = trunc i64 %52 to i32
  tail call void @avio_wb32(ptr noundef %0, i32 noundef %53) #16
  %54 = tail call i64 @avio_seek(ptr noundef %0, i64 noundef %50, i32 noundef 0) #16
  br label %utf8len.exit

utf8len.exit:                                     ; preds = %9, %4, %49
  ret void
}